target datalayout = "e-m:e-p270:32:32-p271:32:32-p272:64:64-i64:64-i128:128-f80:128-n8:16:32:64-S128"
target triple = "x86_64-pc-linux-gnu"

%struct.H5CX_node_t = type { %struct.H5CX_t, ptr }
%struct.H5CX_t = type { i64, ptr, i64, ptr, i64, ptr, i64, ptr, i64, ptr, i64, ptr, i64, i32, i64, i8, ptr, i8, ptr, i8, i32, i8, [3 x double], i8, i64, i8, i32, i8, %struct.H5Z_cb_t, i8, ptr, i8, %struct.H5T_vlen_alloc_info_t, i8, %struct.H5T_conv_cb_t, i8, i32, i8, i8, i8, i32, i8, i8, i32, i8, i8, i32, i8, i32, i8, i64, i8, i8, i8, i8, i8, ptr, i8, ptr, i8, i32, i8, i32, i8, %struct.H5VL_connector_prop_t, i8, ptr, i8 }
%struct.H5Z_cb_t = type { ptr, ptr }
%struct.H5T_vlen_alloc_info_t = type { ptr, ptr, ptr, ptr }
%struct.H5T_conv_cb_t = type { ptr, ptr }
%struct.H5VL_connector_prop_t = type { ptr, ptr }

@H5_libinit_g = external global i8, align 1
@H5_libterm_g = external global i8, align 1
@.str = private unnamed_addr constant [98 x i8] c"generated/home/dtcxzyw/WorkSpace/Projects/compilers/llvm-opt-benchmark/bench/hdf5/hdf5/src/H5VL.c\00", align 1
@H5E_FUNC_g = external global i64, align 8
@H5E_CANTINIT_g = external global i64, align 8
@.str.1 = private unnamed_addr constant [30 x i8] c"library initialization failed\00", align 1
@H5VL_init_g = external global i8, align 1
@.str.2 = private unnamed_addr constant [32 x i8] c"interface initialization failed\00", align 1
@H5E_CANTSET_g = external global i64, align 8
@.str.3 = private unnamed_addr constant [22 x i8] c"can't set API context\00", align 1
@H5E_ARGS_g = external global i64, align 8
@H5E_BADTYPE_g = external global i64, align 8
@H5E_VOL_g = external global i64, align 8
@H5E_CANTGET_g = external global i64, align 8
@H5E_BADVALUE_g = external global i64, align 8
@.str.28 = private unnamed_addr constant [26 x i8] c"invalid object identifier\00", align 1
@__func__.H5VLquery_optional = private unnamed_addr constant [19 x i8] c"H5VLquery_optional\00", align 1
@.str.46 = private unnamed_addr constant [24 x i8] c"invalid 'flags' pointer\00", align 1
@.str.47 = private unnamed_addr constant [40 x i8] c"unable to query VOL connector operation\00", align 1

; Function Attrs: nounwind uwtable
define i32 @H5VLquery_optional(i64 noundef %0, i32 noundef %1, i32 noundef %2, ptr noundef %3) #0 {
  %5 = alloca i64, align 8
  %6 = alloca i32, align 4
  %7 = alloca i32, align 4
  %8 = alloca ptr, align 8
  %9 = alloca ptr, align 8
  %10 = alloca i32, align 4
  %11 = alloca %struct.H5CX_node_t, align 8
  %12 = alloca i8, align 1
  %13 = alloca i8, align 1
  store i64 %0, ptr %5, align 8, !tbaa !8
  store i32 %1, ptr %6, align 4, !tbaa !18
  store i32 %2, ptr %7, align 4, !tbaa !18
  store ptr %3, ptr %8, align 8, !tbaa !33
  call void @llvm.lifetime.start.p0(i64 8, ptr %9) #6
  store ptr null, ptr %9, align 8, !tbaa !20
  call void @llvm.lifetime.start.p0(i64 4, ptr %10) #6
  store i32 0, ptr %10, align 4, !tbaa !18
  call void @llvm.lifetime.start.p0(i64 480, ptr %11) #6
  call void @llvm.memset.p0.i64(ptr align 8 %11, i8 0, i64 480, i1 false)
  call void @llvm.lifetime.start.p0(i64 1, ptr %12) #6
  store i8 0, ptr %12, align 1, !tbaa !12
  call void @llvm.lifetime.start.p0(i64 1, ptr %13) #6
  store i8 0, ptr %13, align 1, !tbaa !12
  br label %14

14:                                               ; preds = %4
  %15 = load i8, ptr @H5_libinit_g, align 1, !tbaa !12, !range !14, !noundef !15
  %16 = trunc i8 %15 to i1
  br i1 %16, label %21, label %17

17:                                               ; preds = %14
  %18 = load i8, ptr @H5_libterm_g, align 1, !tbaa !12, !range !14, !noundef !15
  %19 = trunc i8 %18 to i1
  %20 = xor i1 %19, true
  br label %21

21:                                               ; preds = %17, %14
  %22 = phi i1 [ false, %14 ], [ %20, %17 ]
  %23 = xor i1 %22, true
  %24 = xor i1 %23, true
  %25 = zext i1 %24 to i32
  %26 = sext i32 %25 to i64
  %27 = call i64 @llvm.expect.i64(i64 %26, i64 0)
  %28 = icmp ne i64 %27, 0
  br i1 %28, label %29, label %58

29:                                               ; preds = %21
  %30 = call i32 @H5_init_library()
  %31 = icmp slt i32 %30, 0
  %32 = xor i1 %31, true
  %33 = xor i1 %32, true
  %34 = zext i1 %33 to i32
  %35 = sext i32 %34 to i64
  %36 = call i64 @llvm.expect.i64(i64 %35, i64 0)
  %37 = icmp ne i64 %36, 0
  br i1 %37, label %38, label %57

38:                                               ; preds = %29
  br label %39

39:                                               ; preds = %38
  br label %40

40:                                               ; preds = %39
  br label %41

41:                                               ; preds = %40
  %42 = load i64, ptr @H5E_FUNC_g, align 8, !tbaa !8
  %43 = load i64, ptr @H5E_CANTINIT_g, align 8, !tbaa !8
  %44 = call i32 (ptr, ptr, i32, i64, i64, ptr, ...) @H5E_printf_stack(ptr noundef @.str, ptr noundef @__func__.H5VLquery_optional, i32 noundef 897, i64 noundef %42, i64 noundef %43, ptr noundef @.str.1)
  br label %45

45:                                               ; preds = %41
  br label %46

46:                                               ; preds = %45
  store i8 1, ptr %13, align 1, !tbaa !12
  %47 = load i8, ptr %13, align 1, !tbaa !12, !range !14, !noundef !15
  %48 = trunc i8 %47 to i1
  %49 = zext i1 %48 to i8
  store i8 %49, ptr %13, align 1, !tbaa !12
  br label %50

50:                                               ; preds = %46
  br label %51

51:                                               ; preds = %50
  br label %52

52:                                               ; preds = %51
  store i32 -1, ptr %10, align 4, !tbaa !18
  br label %203

53:                                               ; No predecessors!
  br label %54

54:                                               ; preds = %53
  br label %55

55:                                               ; preds = %54
  br label %56

56:                                               ; preds = %55
  br label %57

57:                                               ; preds = %56, %29
  br label %58

58:                                               ; preds = %57, %21
  %59 = load i8, ptr @H5VL_init_g, align 1, !tbaa !12, !range !14, !noundef !15
  %60 = trunc i8 %59 to i1
  br i1 %60, label %65, label %61

61:                                               ; preds = %58
  %62 = load i8, ptr @H5_libterm_g, align 1, !tbaa !12, !range !14, !noundef !15
  %63 = trunc i8 %62 to i1
  %64 = xor i1 %63, true
  br label %65

65:                                               ; preds = %61, %58
  %66 = phi i1 [ false, %58 ], [ %64, %61 ]
  %67 = xor i1 %66, true
  %68 = xor i1 %67, true
  %69 = zext i1 %68 to i32
  %70 = sext i32 %69 to i64
  %71 = call i64 @llvm.expect.i64(i64 %70, i64 0)
  %72 = icmp ne i64 %71, 0
  br i1 %72, label %73, label %96

73:                                               ; preds = %65
  store i8 1, ptr @H5VL_init_g, align 1, !tbaa !12
  %74 = call i32 @H5VL__init_package()
  %75 = icmp slt i32 %74, 0
  br i1 %75, label %76, label %95

76:                                               ; preds = %73
  store i8 0, ptr @H5VL_init_g, align 1, !tbaa !12
  br label %77

77:                                               ; preds = %76
  br label %78

78:                                               ; preds = %77
  br label %79

79:                                               ; preds = %78
  %80 = load i64, ptr @H5E_FUNC_g, align 8, !tbaa !8
  %81 = load i64, ptr @H5E_CANTINIT_g, align 8, !tbaa !8
  %82 = call i32 (ptr, ptr, i32, i64, i64, ptr, ...) @H5E_printf_stack(ptr noundef @.str, ptr noundef @__func__.H5VLquery_optional, i32 noundef 897, i64 noundef %80, i64 noundef %81, ptr noundef @.str.2)
  br label %83

83:                                               ; preds = %79
  br label %84

84:                                               ; preds = %83
  store i8 1, ptr %13, align 1, !tbaa !12
  %85 = load i8, ptr %13, align 1, !tbaa !12, !range !14, !noundef !15
  %86 = trunc i8 %85 to i1
  %87 = zext i1 %86 to i8
  store i8 %87, ptr %13, align 1, !tbaa !12
  br label %88

88:                                               ; preds = %84
  br label %89

89:                                               ; preds = %88
  br label %90

90:                                               ; preds = %89
  store i32 -1, ptr %10, align 4, !tbaa !18
  br label %203

91:                                               ; No predecessors!
  br label %92

92:                                               ; preds = %91
  br label %93

93:                                               ; preds = %92
  br label %94

94:                                               ; preds = %93
  br label %95

95:                                               ; preds = %94, %73
  br label %96

96:                                               ; preds = %95, %65
  br label %97

97:                                               ; preds = %96
  br label %98

98:                                               ; preds = %97
  br label %99

99:                                               ; preds = %98
  %100 = call i32 @H5CX_push(ptr noundef %11)
  %101 = icmp slt i32 %100, 0
  %102 = xor i1 %101, true
  %103 = xor i1 %102, true
  %104 = zext i1 %103 to i32
  %105 = sext i32 %104 to i64
  %106 = call i64 @llvm.expect.i64(i64 %105, i64 0)
  %107 = icmp ne i64 %106, 0
  br i1 %107, label %108, label %127

108:                                              ; preds = %99
  br label %109

109:                                              ; preds = %108
  br label %110

110:                                              ; preds = %109
  br label %111

111:                                              ; preds = %110
  %112 = load i64, ptr @H5E_FUNC_g, align 8, !tbaa !8
  %113 = load i64, ptr @H5E_CANTSET_g, align 8, !tbaa !8
  %114 = call i32 (ptr, ptr, i32, i64, i64, ptr, ...) @H5E_printf_stack(ptr noundef @.str, ptr noundef @__func__.H5VLquery_optional, i32 noundef 897, i64 noundef %112, i64 noundef %113, ptr noundef @.str.3)
  br label %115

115:                                              ; preds = %111
  br label %116

116:                                              ; preds = %115
  store i8 1, ptr %13, align 1, !tbaa !12
  %117 = load i8, ptr %13, align 1, !tbaa !12, !range !14, !noundef !15
  %118 = trunc i8 %117 to i1
  %119 = zext i1 %118 to i8
  store i8 %119, ptr %13, align 1, !tbaa !12
  br label %120

120:                                              ; preds = %116
  br label %121

121:                                              ; preds = %120
  br label %122

122:                                              ; preds = %121
  store i32 -1, ptr %10, align 4, !tbaa !18
  br label %203

123:                                              ; No predecessors!
  br label %124

124:                                              ; preds = %123
  br label %125

125:                                              ; preds = %124
  br label %126

126:                                              ; preds = %125
  br label %128

127:                                              ; preds = %99
  store i8 1, ptr %12, align 1, !tbaa !12
  br label %128

128:                                              ; preds = %127, %126
  br label %129

129:                                              ; preds = %128
  br label %130

130:                                              ; preds = %129
  %131 = call i32 @H5E_clear_stack()
  %132 = load ptr, ptr %8, align 8, !tbaa !33
  %133 = icmp eq ptr null, %132
  br i1 %133, label %134, label %153

134:                                              ; preds = %130
  br label %135

135:                                              ; preds = %134
  br label %136

136:                                              ; preds = %135
  br label %137

137:                                              ; preds = %136
  %138 = load i64, ptr @H5E_ARGS_g, align 8, !tbaa !8
  %139 = load i64, ptr @H5E_BADVALUE_g, align 8, !tbaa !8
  %140 = call i32 (ptr, ptr, i32, i64, i64, ptr, ...) @H5E_printf_stack(ptr noundef @.str, ptr noundef @__func__.H5VLquery_optional, i32 noundef 901, i64 noundef %138, i64 noundef %139, ptr noundef @.str.46)
  br label %141

141:                                              ; preds = %137
  br label %142

142:                                              ; preds = %141
  store i8 1, ptr %13, align 1, !tbaa !12
  %143 = load i8, ptr %13, align 1, !tbaa !12, !range !14, !noundef !15
  %144 = trunc i8 %143 to i1
  %145 = zext i1 %144 to i8
  store i8 %145, ptr %13, align 1, !tbaa !12
  br label %146

146:                                              ; preds = %142
  br label %147

147:                                              ; preds = %146
  br label %148

148:                                              ; preds = %147
  store i32 -1, ptr %10, align 4, !tbaa !18
  br label %203

149:                                              ; No predecessors!
  br label %150

150:                                              ; preds = %149
  br label %151

151:                                              ; preds = %150
  br label %152

152:                                              ; preds = %151
  br label %153

153:                                              ; preds = %152, %130
  %154 = load i64, ptr %5, align 8, !tbaa !8
  %155 = call ptr @H5VL_vol_object(i64 noundef %154)
  store ptr %155, ptr %9, align 8, !tbaa !20
  %156 = icmp eq ptr null, %155
  br i1 %156, label %157, label %176

157:                                              ; preds = %153
  br label %158

158:                                              ; preds = %157
  br label %159

159:                                              ; preds = %158
  br label %160

160:                                              ; preds = %159
  %161 = load i64, ptr @H5E_ARGS_g, align 8, !tbaa !8
  %162 = load i64, ptr @H5E_BADTYPE_g, align 8, !tbaa !8
  %163 = call i32 (ptr, ptr, i32, i64, i64, ptr, ...) @H5E_printf_stack(ptr noundef @.str, ptr noundef @__func__.H5VLquery_optional, i32 noundef 903, i64 noundef %161, i64 noundef %162, ptr noundef @.str.28)
  br label %164

164:                                              ; preds = %160
  br label %165

165:                                              ; preds = %164
  store i8 1, ptr %13, align 1, !tbaa !12
  %166 = load i8, ptr %13, align 1, !tbaa !12, !range !14, !noundef !15
  %167 = trunc i8 %166 to i1
  %168 = zext i1 %167 to i8
  store i8 %168, ptr %13, align 1, !tbaa !12
  br label %169

169:                                              ; preds = %165
  br label %170

170:                                              ; preds = %169
  br label %171

171:                                              ; preds = %170
  store i32 -1, ptr %10, align 4, !tbaa !18
  br label %203

172:                                              ; No predecessors!
  br label %173

173:                                              ; preds = %172
  br label %174

174:                                              ; preds = %173
  br label %175

175:                                              ; preds = %174
  br label %176

176:                                              ; preds = %175, %153
  %177 = load ptr, ptr %9, align 8, !tbaa !20
  %178 = load i32, ptr %6, align 4, !tbaa !18
  %179 = load i32, ptr %7, align 4, !tbaa !18
  %180 = load ptr, ptr %8, align 8, !tbaa !33
  %181 = call i32 @H5VL_introspect_opt_query(ptr noundef %177, i32 noundef %178, i32 noundef %179, ptr noundef %180)
  %182 = icmp slt i32 %181, 0
  br i1 %182, label %183, label %202

183:                                              ; preds = %176
  br label %184

184:                                              ; preds = %183
  br label %185

185:                                              ; preds = %184
  br label %186

186:                                              ; preds = %185
  %187 = load i64, ptr @H5E_VOL_g, align 8, !tbaa !8
  %188 = load i64, ptr @H5E_CANTGET_g, align 8, !tbaa !8
  %189 = call i32 (ptr, ptr, i32, i64, i64, ptr, ...) @H5E_printf_stack(ptr noundef @.str, ptr noundef @__func__.H5VLquery_optional, i32 noundef 907, i64 noundef %187, i64 noundef %188, ptr noundef @.str.47)
  br label %190

190:                                              ; preds = %186
  br label %191

191:                                              ; preds = %190
  store i8 1, ptr %13, align 1, !tbaa !12
  %192 = load i8, ptr %13, align 1, !tbaa !12, !range !14, !noundef !15
  %193 = trunc i8 %192 to i1
  %194 = zext i1 %193 to i8
  store i8 %194, ptr %13, align 1, !tbaa !12
  br label %195

195:                                              ; preds = %191
  br label %196

196:                                              ; preds = %195
  br label %197

197:                                              ; preds = %196
  store i32 -1, ptr %10, align 4, !tbaa !18
  br label %203

198:                                              ; No predecessors!
  br label %199

199:                                              ; preds = %198
  br label %200

200:                                              ; preds = %199
  br label %201

201:                                              ; preds = %200
  br label %202

202:                                              ; preds = %201, %176
  br label %203

203:                                              ; preds = %202, %197, %171, %148, %122, %90, %52
  %204 = load i8, ptr %12, align 1, !tbaa !12, !range !14, !noundef !15
  %205 = trunc i8 %204 to i1
  %206 = xor i1 %205, true
  %207 = xor i1 %206, true
  %208 = zext i1 %207 to i32
  %209 = sext i32 %208 to i64
  %210 = call i64 @llvm.expect.i64(i64 %209, i64 1)
  %211 = icmp ne i64 %210, 0
  br i1 %211, label %212, label %214

212:                                              ; preds = %203
  %213 = call i32 @H5CX_pop(i1 noundef zeroext true)
  store i8 0, ptr %12, align 1, !tbaa !12
  br label %214

214:                                              ; preds = %212, %203
  %215 = load i8, ptr %13, align 1, !tbaa !12, !range !14, !noundef !15
  %216 = trunc i8 %215 to i1
  %217 = xor i1 %216, true
  %218 = xor i1 %217, true
  %219 = zext i1 %218 to i32
  %220 = sext i32 %219 to i64
  %221 = call i64 @llvm.expect.i64(i64 %220, i64 0)
  %222 = icmp ne i64 %221, 0
  br i1 %222, label %223, label %225

223:                                              ; preds = %214
  %224 = call i32 @H5E_dump_api_stack()
  br label %225

225:                                              ; preds = %223, %214
  %226 = load i32, ptr %10, align 4, !tbaa !18
  call void @llvm.lifetime.end.p0(i64 1, ptr %13) #6
  call void @llvm.lifetime.end.p0(i64 1, ptr %12) #6
  call void @llvm.lifetime.end.p0(i64 480, ptr %11) #6
  call void @llvm.lifetime.end.p0(i64 4, ptr %10) #6
  call void @llvm.lifetime.end.p0(i64 8, ptr %9) #6
  ret i32 %226
}