; Function Attrs: nounwind uwtable
define range(i32 -1, 1) i32 @H5VLquery_optional(i64 noundef %0, i32 noundef %1, i32 noundef %2, ptr noundef %3) local_unnamed_addr #0 {
  %5 = alloca %struct.H5CX_node_t, align 8
  call void @llvm.lifetime.start.p0(i64 480, ptr nonnull %5) #4
  call void @llvm.memset.p0.i64(ptr noundef nonnull align 8 dereferenceable(480) %5, i8 0, i64 480, i1 false)
  %6 = load i8, ptr @H5_libinit_g, align 1, !tbaa !3, !range !7, !noundef !8
  %7 = trunc nuw i8 %6 to i1
  %8 = load i8, ptr @H5_libterm_g, align 1, !range !7
  %9 = trunc nuw i8 %8 to i1
  %10 = select i1 %7, i1 true, i1 %9
  br i1 %10, label %18, label %11, !prof !9

11:                                               ; preds = %4
  %12 = tail call i32 @H5_init_library() #4
  %13 = icmp slt i32 %12, 0
  br i1 %13, label %14, label %._crit_edge, !prof !10

._crit_edge:                                      ; preds = %11
  %.pre = load i8, ptr @H5_libterm_g, align 1, !range !7
  br label %18

14:                                               ; preds = %11
  %15 = load i64, ptr @H5E_FUNC_g, align 8, !tbaa !11
  %16 = load i64, ptr @H5E_CANTINIT_g, align 8, !tbaa !11
  %17 = tail call i32 (ptr, ptr, i32, i64, i64, ptr, ...) @H5E_printf_stack(ptr noundef nonnull @.str, ptr noundef nonnull @__func__.H5VLquery_optional, i32 noundef 897, i64 noundef %15, i64 noundef %16, ptr noundef nonnull @.str.1) #4
  br label %.thread26

18:                                               ; preds = %._crit_edge, %4
  %19 = phi i8 [ %.pre, %._crit_edge ], [ %8, %4 ]
  %20 = load i8, ptr @H5VL_init_g, align 1, !tbaa !3, !range !7, !noundef !8
  %21 = trunc nuw i8 %20 to i1
  %22 = trunc nuw i8 %19 to i1
  %23 = select i1 %21, i1 true, i1 %22
  br i1 %23, label %31, label %24, !prof !9

24:                                               ; preds = %18
  store i8 1, ptr @H5VL_init_g, align 1, !tbaa !3
  %25 = tail call i32 @H5VL__init_package() #4
  %26 = icmp slt i32 %25, 0
  br i1 %26, label %27, label %31, !prof !16

27:                                               ; preds = %24
  store i8 0, ptr @H5VL_init_g, align 1, !tbaa !3
  %28 = load i64, ptr @H5E_FUNC_g, align 8, !tbaa !11
  %29 = load i64, ptr @H5E_CANTINIT_g, align 8, !tbaa !11
  %30 = tail call i32 (ptr, ptr, i32, i64, i64, ptr, ...) @H5E_printf_stack(ptr noundef nonnull @.str, ptr noundef nonnull @__func__.H5VLquery_optional, i32 noundef 897, i64 noundef %28, i64 noundef %29, ptr noundef nonnull @.str.2) #4
  br label %.thread26

31:                                               ; preds = %18, %24
  %32 = call i32 @H5CX_push(ptr noundef nonnull %5) #4
  %33 = icmp slt i32 %32, 0
  br i1 %33, label %34, label %38, !prof !10

34:                                               ; preds = %31
  %35 = load i64, ptr @H5E_FUNC_g, align 8, !tbaa !11
  %36 = load i64, ptr @H5E_CANTSET_g, align 8, !tbaa !11
  %37 = call i32 (ptr, ptr, i32, i64, i64, ptr, ...) @H5E_printf_stack(ptr noundef nonnull @.str, ptr noundef nonnull @__func__.H5VLquery_optional, i32 noundef 897, i64 noundef %35, i64 noundef %36, ptr noundef nonnull @.str.3) #4
  br label %.thread26

38:                                               ; preds = %31
  %39 = call i32 @H5E_clear_stack() #4
  %40 = icmp eq ptr %3, null
  br i1 %40, label %41, label %45, !prof !17

41:                                               ; preds = %38
  %42 = load i64, ptr @H5E_ARGS_g, align 8, !tbaa !11
  %43 = load i64, ptr @H5E_BADVALUE_g, align 8, !tbaa !11
  %44 = call i32 (ptr, ptr, i32, i64, i64, ptr, ...) @H5E_printf_stack(ptr noundef nonnull @.str, ptr noundef nonnull @__func__.H5VLquery_optional, i32 noundef 901, i64 noundef %42, i64 noundef %43, ptr noundef nonnull @.str.46) #4
  br label %.thread32

45:                                               ; preds = %38
  %46 = call ptr @H5VL_vol_object(i64 noundef %0) #4
  %47 = icmp eq ptr %46, null
  br i1 %47, label %48, label %52, !prof !17

48:                                               ; preds = %45
  %49 = load i64, ptr @H5E_ARGS_g, align 8, !tbaa !11
  %50 = load i64, ptr @H5E_BADTYPE_g, align 8, !tbaa !11
  %51 = call i32 (ptr, ptr, i32, i64, i64, ptr, ...) @H5E_printf_stack(ptr noundef nonnull @.str, ptr noundef nonnull @__func__.H5VLquery_optional, i32 noundef 903, i64 noundef %49, i64 noundef %50, ptr noundef nonnull @.str.28) #4
  br label %.thread32

52:                                               ; preds = %45
  %53 = call i32 @H5VL_introspect_opt_query(ptr noundef nonnull %46, i32 noundef %1, i32 noundef %2, ptr noundef nonnull %3) #4
  %54 = icmp slt i32 %53, 0
  br i1 %54, label %55, label %60, !prof !17

55:                                               ; preds = %52
  %56 = load i64, ptr @H5E_VOL_g, align 8, !tbaa !11
  %57 = load i64, ptr @H5E_CANTGET_g, align 8, !tbaa !11
  %58 = call i32 (ptr, ptr, i32, i64, i64, ptr, ...) @H5E_printf_stack(ptr noundef nonnull @.str, ptr noundef nonnull @__func__.H5VLquery_optional, i32 noundef 907, i64 noundef %56, i64 noundef %57, ptr noundef nonnull @.str.47) #4
  br label %.thread32

.thread32:                                        ; preds = %55, %48, %41
  %59 = call i32 @H5CX_pop(i1 noundef zeroext true) #4
  br label %.thread26

60:                                               ; preds = %52
  %61 = call i32 @H5CX_pop(i1 noundef zeroext true) #4
  br label %63

.thread26:                                        ; preds = %34, %27, %14, %.thread32
  %62 = call i32 @H5E_dump_api_stack() #4
  br label %63

63:                                               ; preds = %60, %.thread26
  %.0152129 = phi i32 [ -1, %.thread26 ], [ 0, %60 ]
  call void @llvm.lifetime.end.p0(i64 480, ptr nonnull %5) #4
  ret i32 %.0152129
}